#include <math.h>
#include <stdio.h>
#include <stdlib.h>
#include <string.h>


void main()
{
	int a[15];
	scanf("%d",&a[0]);
	int i=1;
	int k=0;
	while(a[i-1]!=0)
	{
		scanf("%d",&a[i]);
		k=k+1;
		i++;
	}
	int j;
	int n=0;
	for (i=0;i<=k-1;i++)
	{
		for(j=0;j<=k-1;j++)
		{
			if(a[i]==2*a[j])
			{
				n=n+1;	
			}
		}
	}
    printf("%d",n);
}